target datalayout = "e-m:e-p270:32:32-p271:32:32-p272:64:64-i64:64-i128:128-f80:128-n8:16:32:64-S128"
target triple = "x86_64-unknown-linux-gnu"

%"struct.fpa_decl_plugin::mpf_hash_proc" = type { ptr }
%"struct.fpa_decl_plugin::mpf_eq_proc" = type { ptr }
%class.fpa_decl_plugin = type { %class.decl_plugin.base, %class.mpf_manager, %class.id_gen, %class._scoped_numeral_vector, %class.chashtable, ptr, ptr, i32, i32, ptr }
%class.decl_plugin.base = type <{ ptr, ptr, i32 }>
%class.mpf_manager = type { %class.mpq_manager, ptr, %"class.mpf_manager::powers2" }
%class.mpq_manager = type { %class.mpz_manager, %class.mpz, %class.mpz, %class.mpz, %class.mpz, %class.mpq, %class.mpq }
%class.mpz_manager = type { %class.small_object_allocator, %"class.std::recursive_mutex", %class.mpn_manager, i32, %class.mpz, %class.mpz }
%class.small_object_allocator = type { [32 x ptr], [32 x ptr], i64 }
%"class.std::recursive_mutex" = type { %"class.std::__recursive_mutex_base" }
%"class.std::__recursive_mutex_base" = type { %union.pthread_mutex_t }
%union.pthread_mutex_t = type { %struct.__pthread_mutex_s }
%struct.__pthread_mutex_s = type { i32, i32, i32, i32, i32, i16, i16, %struct.__pthread_internal_list }
%struct.__pthread_internal_list = type { ptr, ptr }
%class.mpn_manager = type { i8 }
%class.mpz = type { i32, i8, ptr }
%class.mpq = type { %class.mpz, %class.mpz }
%"class.mpf_manager::powers2" = type { ptr, %class.u_map, %class.u_map, %class.u_map, %class.u_map }
%class.u_map = type { %class.map }
%class.map = type { %class.table2map }
%class.table2map = type { %class.core_hashtable }
%class.core_hashtable = type <{ ptr, i32, i32, i32, [4 x i8] }>
%class.id_gen = type { i32, %class.svector }
%class.svector = type { %class.vector }
%class.vector = type { ptr }
%class._scoped_numeral_vector = type { %class.svector.0, ptr }
%class.svector.0 = type { %class.vector.1 }
%class.vector.1 = type { ptr }
%class.chashtable = type { %"struct.fpa_decl_plugin::mpf_hash_proc", %"struct.fpa_decl_plugin::mpf_eq_proc", ptr, i32, i32, i32, i32, i32, i32, i32, ptr, ptr, ptr }
%class.decl_plugin = type <{ ptr, ptr, i32, [4 x i8] }>
%class.symbol = type { ptr }
%class.mpf = type { i32, %class.mpz, i64 }
%class.ast_manager = type { %class.reslimit, %class.small_object_allocator, %class.family_manager, %class.parray_manager, %class.dependency_manager, %class.parray_manager.16, %class.ptr_vector.19, i32, i8, %class.ast_table, %class.obj_map, %class.id_gen, %class.id_gen, ptr, ptr, ptr, ptr, ptr, i32, i8, [3 x i8], %class.u_map.24, ptr, i8, i8, ptr, %class.symbol, %class.obj_map.29, ptr }
%class.reslimit = type { %"struct.std::atomic", i8, i64, i64, %class.svector.2, %class.ptr_vector }
%"struct.std::atomic" = type { %"struct.std::__atomic_base" }
%"struct.std::__atomic_base" = type { i32 }
%class.svector.2 = type { %class.vector.3 }
%class.vector.3 = type { ptr }
%class.ptr_vector = type { %class.vector.4 }
%class.vector.4 = type { ptr }
%class.family_manager = type { i32, %class.symbol_table, %class.svector.10 }
%class.symbol_table = type { %class.core_hashtable.5, %class.vector.7, %class.svector.8 }
%class.core_hashtable.5 = type <{ ptr, i32, i32, i32, [4 x i8] }>
%class.vector.7 = type { ptr }
%class.svector.8 = type { %class.vector.9 }
%class.vector.9 = type { ptr }
%class.svector.10 = type { %class.vector.11 }
%class.vector.11 = type { ptr }
%class.parray_manager = type { ptr, ptr, %class.ptr_vector.12, %class.ptr_vector.12 }
%class.ptr_vector.12 = type { %class.vector.13 }
%class.vector.13 = type { ptr }
%class.dependency_manager = type { ptr, ptr, %class.ptr_vector.14 }
%class.ptr_vector.14 = type { %class.vector.15 }
%class.vector.15 = type { ptr }
%class.parray_manager.16 = type { ptr, ptr, %class.ptr_vector.17, %class.ptr_vector.17 }
%class.ptr_vector.17 = type { %class.vector.18 }
%class.vector.18 = type { ptr }
%class.ptr_vector.19 = type { %class.vector.20 }
%class.vector.20 = type { ptr }
%class.ast_table = type { %class.chashtable.21 }
%class.chashtable.21 = type { ptr, i32, i32, i32, i32, i32, i32, i32, ptr, ptr, ptr }
%class.obj_map = type { %class.core_hashtable.22 }
%class.core_hashtable.22 = type <{ ptr, i32, i32, i32, [4 x i8] }>
%class.u_map.24 = type { %class.map.25 }
%class.map.25 = type { %class.table2map.26 }
%class.table2map.26 = type { %class.core_hashtable.27 }
%class.core_hashtable.27 = type <{ ptr, i32, i32, i32, [4 x i8] }>
%class.obj_map.29 = type { %class.core_hashtable.30 }
%class.core_hashtable.30 = type <{ ptr, i32, i32, i32, [4 x i8] }>
%class.scoped_mpf = type { %class._scoped_numeral }
%class._scoped_numeral = type { ptr, %class.mpf }
%class.bv_util = type { %class.bv_recognizers, ptr, ptr }
%class.bv_recognizers = type { i32 }
%class.fpa_util = type { ptr, ptr, i32, %class.arith_util, %class.bv_util }
%class.arith_util = type { ptr, ptr }

@.str.8 = private unnamed_addr constant [2 x i8] c"\0A\00", align 1

; Function Attrs: mustprogress nounwind uwtable
define linkonce_odr hidden noundef nonnull align 8 dereferenceable(8) ptr @_ZN11ast_manager12trace_streamEv(ptr noundef nonnull align 8 dereferenceable(976) %this) #5 comdat align 2 {
entry:
  %this.addr = alloca ptr, align 8
  store ptr %this, ptr %this.addr, align 8
  %this1 = load ptr, ptr %this.addr, align 8
  %m_trace_stream = getelementptr inbounds %class.ast_manager, ptr %this1, i32 0, i32 22
  %0 = load ptr, ptr %m_trace_stream, align 8
  %add.ptr = getelementptr inbounds i8, ptr %0, i64 16
  ret ptr %add.ptr
}

; Function Attrs: mustprogress uwtable
define linkonce_odr hidden noundef ptr @_ZN11ast_manager8mk_constEP9func_decl(ptr noundef nonnull align 8 dereferenceable(976) %this, ptr noundef %decl) #4 comdat align 2 {
entry:
  %this.addr = alloca ptr, align 8
  %decl.addr = alloca ptr, align 8
  store ptr %this, ptr %this.addr, align 8
  store ptr %decl, ptr %decl.addr, align 8
  %this1 = load ptr, ptr %this.addr, align 8
  %0 = load ptr, ptr %decl.addr, align 8
  %call = call noundef ptr @_ZN11ast_manager6mk_appEP9func_decljPKP4expr(ptr noundef nonnull align 8 dereferenceable(976) %this1, ptr noundef %0, i32 noundef 0, ptr noundef null)
  ret ptr %call
}

; Function Attrs: mustprogress uwtable
define hidden noundef ptr @_ZN15fpa_decl_plugin10mk_numeralERK3mpf(ptr noundef nonnull align 8 dereferenceable(1008) %this, ptr noundef nonnull align 8 dereferenceable(32) %v) #4 align 2 {
entry:
  %this.addr = alloca ptr, align 8
  %v.addr = alloca ptr, align 8
  %r = alloca ptr, align 8
  store ptr %this, ptr %this.addr, align 8
  store ptr %v, ptr %v.addr, align 8
  %this1 = load ptr, ptr %this.addr, align 8
  %m_manager = getelementptr inbounds %class.decl_plugin, ptr %this1, i32 0, i32 1
  %0 = load ptr, ptr %m_manager, align 8
  %1 = load ptr, ptr %v.addr, align 8
  %call = call noundef ptr @_ZN15fpa_decl_plugin15mk_numeral_declERK3mpf(ptr noundef nonnull align 8 dereferenceable(1008) %this1, ptr noundef nonnull align 8 dereferenceable(32) %1)
  %call2 = call noundef ptr @_ZN11ast_manager8mk_constEP9func_decl(ptr noundef nonnull align 8 dereferenceable(976) %0, ptr noundef %call)
  store ptr %call2, ptr %r, align 8
  %2 = load ptr, ptr %r, align 8
  %call3 = call noundef zeroext i1 @_ZN11decl_plugin28log_constant_meaning_preludeEP3app(ptr noundef nonnull align 8 dereferenceable(20) %this1, ptr noundef %2)
  br i1 %call3, label %if.then, label %if.end

if.then:                                          ; preds = %entry
  %m_fm = getelementptr inbounds %class.fpa_decl_plugin, ptr %this1, i32 0, i32 1
  %m_manager4 = getelementptr inbounds %class.decl_plugin, ptr %this1, i32 0, i32 1
  %3 = load ptr, ptr %m_manager4, align 8
  %call5 = call noundef nonnull align 8 dereferenceable(8) ptr @_ZN11ast_manager12trace_streamEv(ptr noundef nonnull align 8 dereferenceable(976) %3)
  %4 = load ptr, ptr %v.addr, align 8
  call void @_ZN11mpf_manager12display_smt2ERSoRK3mpfb(ptr noundef nonnull align 8 dereferenceable(840) %m_fm, ptr noundef nonnull align 8 dereferenceable(8) %call5, ptr noundef nonnull align 8 dereferenceable(32) %4, i1 noundef zeroext false)
  %m_manager6 = getelementptr inbounds %class.decl_plugin, ptr %this1, i32 0, i32 1
  %5 = load ptr, ptr %m_manager6, align 8
  %call7 = call noundef nonnull align 8 dereferenceable(8) ptr @_ZN11ast_manager12trace_streamEv(ptr noundef nonnull align 8 dereferenceable(976) %5)
  %call8 = call noundef nonnull align 8 dereferenceable(8) ptr @_ZStlsISt11char_traitsIcEERSt13basic_ostreamIcT_ES5_PKc(ptr noundef nonnull align 8 dereferenceable(8) %call7, ptr noundef @.str.8)
  br label %if.end

if.end:                                           ; preds = %if.then, %entry
  %6 = load ptr, ptr %r, align 8
  ret ptr %6
}

; Function Attrs: mustprogress uwtable
define linkonce_odr hidden void @_ZN15_scoped_numeralI11mpf_managerEC2ERS0_(ptr noundef nonnull align 8 dereferenceable(40) %this, ptr noundef nonnull align 8 dereferenceable(840) %m) unnamed_addr #4 comdat align 2 {
entry:
  %this.addr = alloca ptr, align 8
  %m.addr = alloca ptr, align 8
  store ptr %this, ptr %this.addr, align 8
  store ptr %m, ptr %m.addr, align 8
  %this1 = load ptr, ptr %this.addr, align 8
  %m_manager = getelementptr inbounds %class._scoped_numeral, ptr %this1, i32 0, i32 0
  %0 = load ptr, ptr %m.addr, align 8
  store ptr %0, ptr %m_manager, align 8
  %m_num = getelementptr inbounds %class._scoped_numeral, ptr %this1, i32 0, i32 1
  call void @_ZN3mpfC1Ev(ptr noundef nonnull align 8 dereferenceable(32) %m_num)
  ret void
}

; Function Attrs: mustprogress nounwind uwtable
define linkonce_odr hidden noundef nonnull align 8 dereferenceable(840) ptr @_ZN15fpa_decl_plugin2fmEv(ptr noundef nonnull align 8 dereferenceable(1008) %this) #5 comdat align 2 {
entry:
  %this.addr = alloca ptr, align 8
  store ptr %this, ptr %this.addr, align 8
  %this1 = load ptr, ptr %this.addr, align 8
  %m_fm = getelementptr inbounds %class.fpa_decl_plugin, ptr %this1, i32 0, i32 1
  ret ptr %m_fm
}

; Function Attrs: mustprogress uwtable
define linkonce_odr hidden noundef ptr @_ZN8fpa_util8mk_valueERK3mpf(ptr noundef nonnull align 8 dereferenceable(64) %this, ptr noundef nonnull align 8 dereferenceable(32) %v) #4 comdat align 2 {
entry:
  %this.addr = alloca ptr, align 8
  %v.addr = alloca ptr, align 8
  store ptr %this, ptr %this.addr, align 8
  store ptr %v, ptr %v.addr, align 8
  %this1 = load ptr, ptr %this.addr, align 8
  %m_plugin = getelementptr inbounds %class.fpa_util, ptr %this1, i32 0, i32 1
  %0 = load ptr, ptr %m_plugin, align 8
  %1 = load ptr, ptr %v.addr, align 8
  %call = call noundef ptr @_ZN15fpa_decl_plugin10mk_numeralERK3mpf(ptr noundef nonnull align 8 dereferenceable(1008) %0, ptr noundef nonnull align 8 dereferenceable(32) %1)
  ret ptr %call
}

; Function Attrs: mustprogress nounwind uwtable
define linkonce_odr hidden noundef nonnull align 8 dereferenceable(32) ptr @_ZN15_scoped_numeralI11mpf_managerEcvR3mpfEv(ptr noundef nonnull align 8 dereferenceable(40) %this) #5 comdat align 2 {
entry:
  %this.addr = alloca ptr, align 8
  store ptr %this, ptr %this.addr, align 8
  %this1 = load ptr, ptr %this.addr, align 8
  %m_num = getelementptr inbounds %class._scoped_numeral, ptr %this1, i32 0, i32 1
  ret ptr %m_num
}

; Function Attrs: mustprogress uwtable
define linkonce_odr hidden void @_ZN10scoped_mpfC2ER11mpf_manager(ptr noundef nonnull align 8 dereferenceable(40) %this, ptr noundef nonnull align 8 dereferenceable(840) %m) unnamed_addr #4 comdat align 2 {
entry:
  %this.addr = alloca ptr, align 8
  %m.addr = alloca ptr, align 8
  store ptr %this, ptr %this.addr, align 8
  store ptr %m, ptr %m.addr, align 8
  %this1 = load ptr, ptr %this.addr, align 8
  %0 = load ptr, ptr %m.addr, align 8
  call void @_ZN15_scoped_numeralI11mpf_managerEC2ERS0_(ptr noundef nonnull align 8 dereferenceable(40) %this1, ptr noundef nonnull align 8 dereferenceable(840) %0)
  ret void
}

; Function Attrs: mustprogress uwtable
define linkonce_odr hidden noundef nonnull align 8 dereferenceable(840) ptr @_ZNK8fpa_util2fmEv(ptr noundef nonnull align 8 dereferenceable(64) %this) #4 comdat align 2 {
entry:
  %this.addr = alloca ptr, align 8
  store ptr %this, ptr %this.addr, align 8
  %this1 = load ptr, ptr %this.addr, align 8
  %m_plugin = getelementptr inbounds %class.fpa_util, ptr %this1, i32 0, i32 1
  %0 = load ptr, ptr %m_plugin, align 8
  %call = call noundef nonnull align 8 dereferenceable(840) ptr @_ZN15fpa_decl_plugin2fmEv(ptr noundef nonnull align 8 dereferenceable(1008) %0)
  ret ptr %call
}

; Function Attrs: mustprogress uwtable
define hidden noundef ptr @_ZN8fpa_util8mk_pzeroEjj(ptr noundef nonnull align 8 dereferenceable(64) %this, i32 noundef %ebits, i32 noundef %sbits) #4 align 2 personality ptr @__gxx_personality_v0 {
entry:
  %this.addr = alloca ptr, align 8
  %ebits.addr = alloca i32, align 4
  %sbits.addr = alloca i32, align 4
  %v = alloca %class.scoped_mpf, align 8
  %exn.slot = alloca ptr, align 8
  %ehselector.slot = alloca i32, align 4
  store ptr %this, ptr %this.addr, align 8
  store i32 %ebits, ptr %ebits.addr, align 4
  store i32 %sbits, ptr %sbits.addr, align 4
  %this1 = load ptr, ptr %this.addr, align 8
  %call = call noundef nonnull align 8 dereferenceable(840) ptr @_ZNK8fpa_util2fmEv(ptr noundef nonnull align 8 dereferenceable(64) %this1)
  call void @_ZN10scoped_mpfC2ER11mpf_manager(ptr noundef nonnull align 8 dereferenceable(40) %v, ptr noundef nonnull align 8 dereferenceable(840) %call)
  %call2 = invoke noundef nonnull align 8 dereferenceable(840) ptr @_ZNK8fpa_util2fmEv(ptr noundef nonnull align 8 dereferenceable(64) %this1)
          to label %invoke.cont unwind label %lpad

invoke.cont:                                      ; preds = %entry
  %0 = load i32, ptr %ebits.addr, align 4
  %1 = load i32, ptr %sbits.addr, align 4
  %call4 = invoke noundef nonnull align 8 dereferenceable(32) ptr @_ZN15_scoped_numeralI11mpf_managerEcvR3mpfEv(ptr noundef nonnull align 8 dereferenceable(40) %v)
          to label %invoke.cont3 unwind label %lpad

invoke.cont3:                                     ; preds = %invoke.cont
  invoke void @_ZN11mpf_manager8mk_pzeroEjjR3mpf(ptr noundef nonnull align 8 dereferenceable(840) %call2, i32 noundef %0, i32 noundef %1, ptr noundef nonnull align 8 dereferenceable(32) %call4)
          to label %invoke.cont5 unwind label %lpad

invoke.cont5:                                     ; preds = %invoke.cont3
  %call7 = invoke noundef nonnull align 8 dereferenceable(32) ptr @_ZN15_scoped_numeralI11mpf_managerEcvR3mpfEv(ptr noundef nonnull align 8 dereferenceable(40) %v)
          to label %invoke.cont6 unwind label %lpad

invoke.cont6:                                     ; preds = %invoke.cont5
  %call9 = invoke noundef ptr @_ZN8fpa_util8mk_valueERK3mpf(ptr noundef nonnull align 8 dereferenceable(64) %this1, ptr noundef nonnull align 8 dereferenceable(32) %call7)
          to label %invoke.cont8 unwind label %lpad

invoke.cont8:                                     ; preds = %invoke.cont6
  call void @_ZN10scoped_mpfD2Ev(ptr noundef nonnull align 8 dereferenceable(40) %v) #3
  ret ptr %call9

lpad:                                             ; preds = %invoke.cont6, %invoke.cont5, %invoke.cont3, %invoke.cont, %entry
  %2 = landingpad { ptr, i32 }
          cleanup
  %3 = extractvalue { ptr, i32 } %2, 0
  store ptr %3, ptr %exn.slot, align 8
  %4 = extractvalue { ptr, i32 } %2, 1
  store i32 %4, ptr %ehselector.slot, align 4
  call void @_ZN10scoped_mpfD2Ev(ptr noundef nonnull align 8 dereferenceable(40) %v) #3
  br label %eh.resume

eh.resume:                                        ; preds = %lpad
  %exn = load ptr, ptr %exn.slot, align 8
  %sel = load i32, ptr %ehselector.slot, align 4
  %lpad.val = insertvalue { ptr, i32 } poison, ptr %exn, 0
  %lpad.val10 = insertvalue { ptr, i32 } %lpad.val, i32 %sel, 1
  resume { ptr, i32 } %lpad.val10
}